target datalayout = "e-m:e-p270:32:32-p271:32:32-p272:64:64-i64:64-i128:128-f80:128-n8:16:32:64-S128"
target triple = "x86_64-pc-linux-gnu"

%struct.QMetaObject = type { %"struct.QMetaObject::Data" }
%"struct.QMetaObject::Data" = type { %"struct.QMetaObject::SuperData", ptr, ptr, ptr, ptr, ptr, ptr }
%"struct.QMetaObject::SuperData" = type { ptr }
%class.QVariant = type { %"struct.QVariant::Private" }
%"struct.QVariant::Private" = type { %union.anon, i64 }
%union.anon = type { ptr, [16 x i8] }

@pref_prop_ = global ptr @.str, align 8
@_ZN9QComboBox16staticMetaObjectE = external global %struct.QMetaObject, align 8

; Function Attrs: mustprogress uwtable
define linkonce_odr noundef ptr @_ZNK8QVariant5valueIPvEET_v(ptr noundef nonnull align 8 dereferenceable(32) %0) #0 comdat align 2 {
  %2 = alloca ptr, align 8
  store ptr %0, ptr %2, align 8
  %3 = load ptr, ptr %2, align 8
  %4 = call noundef ptr @_Z13qvariant_castIPvET_RK8QVariant(ptr noundef nonnull align 8 dereferenceable(32) %3)
  ret ptr %4
}

; Function Attrs: mustprogress uwtable
define linkonce_odr noundef ptr @_ZNK11QMetaObject4castEP7QObject(ptr noundef nonnull align 8 dereferenceable(56) %0, ptr noundef %1) #0 comdat align 2 {
  %3 = alloca ptr, align 8
  %4 = alloca ptr, align 8
  store ptr %0, ptr %3, align 8
  store ptr %1, ptr %4, align 8
  %5 = load ptr, ptr %3, align 8
  %6 = load ptr, ptr %4, align 8
  %7 = call noundef ptr @_ZNK11QMetaObject4castEPK7QObject(ptr noundef nonnull align 8 dereferenceable(56) %5, ptr noundef %6)
  ret ptr %7
}

; Function Attrs: mustprogress uwtable
define linkonce_odr noundef ptr @_ZN14VariantPointerI10preferenceE5asPtrE8QVariant(ptr noundef %0) #0 comdat align 2 {
  %2 = alloca ptr, align 8
  store ptr %0, ptr %2, align 8
  %3 = call noundef ptr @_ZNK8QVariant5valueIPvEET_v(ptr noundef nonnull align 8 dereferenceable(32) %0)
  ret ptr %3
}

; Function Attrs: mustprogress uwtable
define linkonce_odr noundef ptr @_Z12qobject_castIP9QComboBoxET_P7QObject(ptr noundef %0) #0 comdat {
  %2 = alloca ptr, align 8
  store ptr %0, ptr %2, align 8
  %3 = load ptr, ptr %2, align 8
  %4 = call noundef ptr @_ZNK11QMetaObject4castEP7QObject(ptr noundef nonnull align 8 dereferenceable(56) @_ZN9QComboBox16staticMetaObjectE, ptr noundef %3)
  ret ptr %4
}

; Function Attrs: mustprogress uwtable
define void @_ZN27ModulePreferencesScrollArea41enumComboBoxCurrentIndexChanged_PROTO_TCPEi(ptr noundef nonnull align 8 dereferenceable(56) %0, i32 noundef %1) #0 align 2 personality ptr @__gxx_personality_v0 {
  %3 = alloca ptr, align 8
  %4 = alloca i32, align 4
  %5 = alloca ptr, align 8
  %6 = alloca ptr, align 8
  %7 = alloca %class.QVariant, align 8
  %8 = alloca ptr, align 8
  %9 = alloca i32, align 4
  %10 = alloca %class.QVariant, align 8
  store ptr %0, ptr %3, align 8
  store i32 %1, ptr %4, align 4
  %11 = load ptr, ptr %3, align 8
  %12 = call noundef ptr @_ZNK7QObject6senderEv(ptr noundef nonnull align 8 dereferenceable(16) %11)
  %13 = call noundef ptr @_Z12qobject_castIP9QComboBoxET_P7QObject(ptr noundef %12)
  store ptr %13, ptr %5, align 8
  %14 = load ptr, ptr %5, align 8
  %15 = icmp ne ptr %14, null
  br i1 %15, label %17, label %16

16:                                               ; preds = %2
  br label %37

17:                                               ; preds = %2
  %18 = load ptr, ptr %5, align 8
  %19 = load ptr, ptr @pref_prop_, align 8
  call void @_ZNK7QObject8propertyEPKc(ptr dead_on_unwind writable sret(%class.QVariant) align 8 %7, ptr noundef nonnull align 8 dereferenceable(16) %18, ptr noundef %19)
  %20 = invoke noundef ptr @_ZN14VariantPointerI10preferenceE5asPtrE8QVariant(ptr noundef %7)
          to label %21 unwind label %25

21:                                               ; preds = %17
  call void @_ZN8QVariantD1Ev(ptr noundef nonnull align 8 dereferenceable(32) %7) #15
  store ptr %20, ptr %6, align 8
  %22 = load ptr, ptr %6, align 8
  %23 = icmp ne ptr %22, null
  br i1 %23, label %29, label %24

24:                                               ; preds = %21
  br label %37

25:                                               ; preds = %17
  %26 = landingpad { ptr, i32 }
          cleanup
  %27 = extractvalue { ptr, i32 } %26, 0
  store ptr %27, ptr %8, align 8
  %28 = extractvalue { ptr, i32 } %26, 1
  store i32 %28, ptr %9, align 4
  call void @_ZN8QVariantD1Ev(ptr noundef nonnull align 8 dereferenceable(32) %7) #15
  br label %42

29:                                               ; preds = %21
  %30 = load ptr, ptr %6, align 8
  %31 = load ptr, ptr %5, align 8
  %32 = load i32, ptr %4, align 4
  call void @_ZNK9QComboBox8itemDataEii(ptr dead_on_unwind writable sret(%class.QVariant) align 8 %10, ptr noundef nonnull align 8 dereferenceable(40) %31, i32 noundef %32, i32 noundef 256)
  %33 = invoke noundef i32 @_ZNK8QVariant5toIntEPb(ptr noundef nonnull align 8 dereferenceable(32) %10, ptr noundef null)
          to label %34 unwind label %38

34:                                               ; preds = %29
  %35 = invoke i32 @prefs_set_enum_value(ptr noundef %30, i32 noundef %33, i32 noundef 2)
          to label %36 unwind label %38

36:                                               ; preds = %34
  call void @_ZN8QVariantD1Ev(ptr noundef nonnull align 8 dereferenceable(32) %10) #15
  br label %37

37:                                               ; preds = %36, %24, %16
  ret void

38:                                               ; preds = %34, %29
  %39 = landingpad { ptr, i32 }
          cleanup
  %40 = extractvalue { ptr, i32 } %39, 0
  store ptr %40, ptr %8, align 8
  %41 = extractvalue { ptr, i32 } %39, 1
  store i32 %41, ptr %9, align 4
  call void @_ZN8QVariantD1Ev(ptr noundef nonnull align 8 dereferenceable(32) %10) #15
  br label %42

42:                                               ; preds = %38, %25
  %43 = load ptr, ptr %8, align 8
  %44 = load i32, ptr %9, align 4
  %45 = insertvalue { ptr, i32 } poison, ptr %43, 0
  %46 = insertvalue { ptr, i32 } %45, i32 %44, 1
  resume { ptr, i32 } %46
}